Certificate:
    Data:
        Version: 3 (0x2)
        Serial Number: 3145728 (0x300000)
        Signature Algorithm: md5WithRSAEncryption
        Issuer: C=US, ST=California, L=San Jose, O=Super Certs, O=Certificate Department, OU=Certificate Management Unit, CN=ca.supercerts.ninja/emailAddress=admin@supercerts.ninja
        Validity
            Not Before: Sep 17 23:56:57 2014 GMT
            Not After : Jan 31 23:56:57 2836 GMT
        Subject: C=US, ST=California, L=San Jose, O=Super Certs, O=Certificate Department, OU=Certificate Management Unit, CN=testsite1.supercerts.ninja/emailAddress=admin@supercerts.ninja
        Subject Public Key Info:
            Public Key Algorithm: rsaEncryption
            RSA Public Key: (2048 bit)
                Modulus (2048 bit):
                    00:ba:32:62:f6:78:b5:0b:72:ec:83:5e:f6:80:4c:
                    39:ba:d5:87:5c:cd:32:66:46:17:68:11:8e:40:4d:
                    05:5b:ce:74:79:2e:6a:a1:f9:f6:37:22:0d:fd:3e:
                    36:0c:ee:e5:16:cc:6c:69:c2:53:7b:24:b5:55:42:
                    c8:53:b0:94:00:0b:58:4b:c4:e6:03:26:00:a3:5d:
                    7c:b2:52:0f:2d:d1:5b:97:23:8c:74:b8:e6:f5:b7:
                    f9:76:1c:66:d7:9a:2c:85:c0:b5:bb:e6:b2:ee:8a:
                    17:b0:0c:5c:8d:98:7a:1d:be:90:ea:54:5a:b7:06:
                    f7:73:dd:e9:2b:68:10:28:3a:dd:fa:f6:98:92:be:
                    3d:a6:fa:ea:4c:21:49:bd:ee:4d:fd:c8:03:5b:62:
                    3e:8f:c7:14:5e:0d:50:87:dc:7c:6a:6c:9c:36:38:
                    70:35:e9:f0:c6:ca:9a:b5:04:0e:bd:99:78:03:49:
                    b5:67:e5:ab:2d:7c:93:a5:11:86:ce:fa:f5:68:05:
                    c4:e5:f8:97:98:18:af:f4:ec:2c:f2:f8:49:87:48:
                    8b:ad:f1:90:90:0f:5d:e3:e4:e0:78:d0:cf:0d:91:
                    ae:a4:5b:42:45:05:54:37:6f:3e:83:48:5f:e6:20:
                    ab:d5:d3:12:93:7f:00:49:69:4c:ff:9c:95:2e:bc:
                    2b:7b
                Exponent: 65537 (0x10001)
        X509v3 extensions:
            X509v3 Basic Constraints: 
                CA:FALSE
            Netscape Comment: 
                OpenSSL Generated Certificate
            X509v3 Subject Key Identifier: 
                A2:C0:A3:6D:99:F8:BA:D8:6F:7A:FF:48:E3:56:05:DF:F7:74:D0:BF
            X509v3 Authority Key Identifier: 
                keyid:45:B1:4C:1E:1B:88:15:AB:CA:D7:FB:C5:06:5D:88:90:C7:08:BA:76
                DirName:/C=US/ST=California/L=San Jose/O=Super Certs/O=Certificate Department/OU=Certificate Management Unit/CN=ca.supercerts.ninja/emailAddress=admin@supercerts.ninja
                serial:BA:29:A0:74:86:2B:62:8C

    Signature Algorithm: md5WithRSAEncryption
        d0:21:10:8f:82:b1:30:cf:81:50:7e:2d:1d:d7:28:77:9b:a1:
        d3:25:81:86:0c:e8:05:d9:3e:79:f3:6f:f6:23:72:d5:6f:b2:
        a9:b0:cd:d4:11:a0:c9:b0:9e:ab:eb:1e:94:ec:24:68:87:6e:
        ff:48:65:e7:34:27:48:49:f8:72:66:82:bd:5e:a5:69:c4:83:
        7c:78:1f:29:63:6e:be:bd:e1:b0:30:46:71:78:a3:c0:55:dd:
        b5:22:5c:10:03:84:30:33:0f:c8:ce:53:75:b2:17:e0:ee:48:
        3f:a4:99:b4:36:80:ac:c2:ed:e1:06:8c:fd:fe:8d:d7:4a:c3:
        ae:8d:28:e1:72:ab:42:8f:28:9b:12:06:b9:e5:ad:36:08:6e:
        a2:0f:7c:18:66:dd:2c:32:f7:e6:78:45:de:21:67:63:ec:a3:
        e6:f2:b9:c7:ed:57:03:38:ee:dc:d9:56:75:ef:27:e4:33:d1:
        4f:ae:e0:ca:8c:25:4f:58:3f:31:f9:65:80:f7:1a:64:06:83:
        cd:fc:3e:b3:88:73:0b:33:26:ad:60:ff:3b:9c:6b:8c:2c:55:
        2a:09:1c:50:25:b9:6e:ba:84:60:82:fc:8a:f2:db:05:a7:6a:
        ce:65:7f:cd:9a:6f:b2:1b:77:d4:2c:b6:7f:8c:0c:ba:58:ba:
        da:1d:4c:53
-----BEGIN CERTIFICATE-----
MIIFpjCCBI6gAwIBAgIDMAAAMA0GCSqGSIb3DQEBBAUAMIHXMQswCQYDVQQGEwJV
UzETMBEGA1UECBMKQ2FsaWZvcm5pYTERMA8GA1UEBxMIU2FuIEpvc2UxFDASBgNV
BAoTC1N1cGVyIENlcnRzMR8wHQYDVQQKExZDZXJ0aWZpY2F0ZSBEZXBhcnRtZW50
MSQwIgYDVQQLExtDZXJ0aWZpY2F0ZSBNYW5hZ2VtZW50IFVuaXQxHDAaBgNVBAMT
E2NhLnN1cGVyY2VydHMubmluamExJTAjBgkqhkiG9w0BCQEWFmFkbWluQHN1cGVy
Y2VydHMubmluamEwIBcNMTQwOTE3MjM1NjU3WhgPMjgzNjAxMzEyMzU2NTdaMIHe
MQswCQYDVQQGEwJVUzETMBEGA1UECBMKQ2FsaWZvcm5pYTERMA8GA1UEBxMIU2Fu
IEpvc2UxFDASBgNVBAoTC1N1cGVyIENlcnRzMR8wHQYDVQQKExZDZXJ0aWZpY2F0
ZSBEZXBhcnRtZW50MSQwIgYDVQQLExtDZXJ0aWZpY2F0ZSBNYW5hZ2VtZW50IFVu
aXQxIzAhBgNVBAMTGnRlc3RzaXRlMS5zdXBlcmNlcnRzLm5pbmphMSUwIwYJKoZI
hvcNAQkBFhZhZG1pbkBzdXBlcmNlcnRzLm5pbmphMIIBIjANBgkqhkiG9w0BAQEF
AAOCAQ8AMIIBCgKCAQEAujJi9ni1C3Lsg172gEw5utWHXM0yZkYXaBGOQE0FW850
eS5qofn2NyIN/T42DO7lFsxsacJTeyS1VULIU7CUAAtYS8TmAyYAo118slIPLdFb
lyOMdLjm9bf5dhxm15oshcC1u+ay7ooXsAxcjZh6Hb6Q6lRatwb3c93pK2gQKDrd
+vaYkr49pvrqTCFJve5N/cgDW2I+j8cUXg1Qh9x8amycNjhwNenwxsqatQQOvZl4
A0m1Z+WrLXyTpRGGzvr1aAXE5fiXmBiv9Ows8vhJh0iLrfGQkA9d4+TgeNDPDZGu
pFtCRQVUN28+g0hf5iCr1dMSk38ASWlM/5yVLrwrewIDAQABo4IBbjCCAWowCQYD
VR0TBAIwADAsBglghkgBhvhCAQ0EHxYdT3BlblNTTCBHZW5lcmF0ZWQgQ2VydGlm
aWNhdGUwHQYDVR0OBBYEFKLAo22Z+LrYb3r/SONWBd/3dNC/MIIBDgYDVR0jBIIB
BTCCAQGAFEWxTB4biBWrytf7xQZdiJDHCLp2oYHdpIHaMIHXMQswCQYDVQQGEwJV
UzETMBEGA1UECBMKQ2FsaWZvcm5pYTERMA8GA1UEBxMIU2FuIEpvc2UxFDASBgNV
BAoTC1N1cGVyIENlcnRzMR8wHQYDVQQKExZDZXJ0aWZpY2F0ZSBEZXBhcnRtZW50
MSQwIgYDVQQLExtDZXJ0aWZpY2F0ZSBNYW5hZ2VtZW50IFVuaXQxHDAaBgNVBAMT
E2NhLnN1cGVyY2VydHMubmluamExJTAjBgkqhkiG9w0BCQEWFmFkbWluQHN1cGVy
Y2VydHMubmluamGCCQC6KaB0hitijDANBgkqhkiG9w0BAQQFAAOCAQEA0CEQj4Kx
MM+BUH4tHdcod5uh0yWBhgzoBdk+efNv9iNy1W+yqbDN1BGgybCeq+selOwkaIdu
/0hl5zQnSEn4cmaCvV6lacSDfHgfKWNuvr3hsDBGcXijwFXdtSJcEAOEMDMPyM5T
dbIX4O5IP6SZtDaArMLt4QaM/f6N10rDro0o4XKrQo8omxIGueWtNghuog98GGbd
LDL35nhF3iFnY+yj5vK5x+1XAzju3NlWde8n5DPRT67gyowlT1g/MfllgPcaZAaD
zfw+s4hzCzMmrWD/O5xrjCxVKgkcUCW5brqEYIL8ivLbBadqzmV/zZpvsht31Cy2
f4wMuli62h1MUw==
-----END CERTIFICATE-----
